target datalayout = "e-m:e-p270:32:32-p271:32:32-p272:64:64-i64:64-i128:128-f80:128-n8:16:32:64-S128"
target triple = "x86_64-pc-linux-gnu"

%struct.GetBitContext = type { ptr, ptr, i32, i32, i32 }

; Function Attrs: inlinehint nounwind uwtable
define internal i32 @get_bits1(ptr noundef %0) #2 {
  %2 = alloca ptr, align 8
  %3 = alloca i32, align 4
  %4 = alloca i8, align 1
  store ptr %0, ptr %2, align 8, !tbaa !11
  call void @llvm.lifetime.start.p0(i64 4, ptr %3) #9
  %5 = load ptr, ptr %2, align 8, !tbaa !11
  %6 = getelementptr inbounds nuw %struct.GetBitContext, ptr %5, i32 0, i32 2
  %7 = load i32, ptr %6, align 8, !tbaa !89
  store i32 %7, ptr %3, align 4, !tbaa !85
  call void @llvm.lifetime.start.p0(i64 1, ptr %4) #9
  %8 = load ptr, ptr %2, align 8, !tbaa !11
  %9 = getelementptr inbounds nuw %struct.GetBitContext, ptr %8, i32 0, i32 0
  %10 = load ptr, ptr %9, align 8, !tbaa !91
  %11 = load i32, ptr %3, align 4, !tbaa !85
  %12 = lshr i32 %11, 3
  %13 = zext i32 %12 to i64
  %14 = getelementptr inbounds nuw i8, ptr %10, i64 %13
  %15 = load i8, ptr %14, align 1, !tbaa !92
  store i8 %15, ptr %4, align 1, !tbaa !92
  %16 = load i32, ptr %3, align 4, !tbaa !85
  %17 = and i32 %16, 7
  %18 = load i8, ptr %4, align 1, !tbaa !92
  %19 = zext i8 %18 to i32
  %20 = shl i32 %19, %17
  %21 = trunc i32 %20 to i8
  store i8 %21, ptr %4, align 1, !tbaa !92
  %22 = load i8, ptr %4, align 1, !tbaa !92
  %23 = zext i8 %22 to i32
  %24 = ashr i32 %23, 7
  %25 = trunc i32 %24 to i8
  store i8 %25, ptr %4, align 1, !tbaa !92
  %26 = load ptr, ptr %2, align 8, !tbaa !11
  %27 = getelementptr inbounds nuw %struct.GetBitContext, ptr %26, i32 0, i32 2
  %28 = load i32, ptr %27, align 8, !tbaa !89
  %29 = load ptr, ptr %2, align 8, !tbaa !11
  %30 = getelementptr inbounds nuw %struct.GetBitContext, ptr %29, i32 0, i32 4
  %31 = load i32, ptr %30, align 8, !tbaa !90
  %32 = icmp slt i32 %28, %31
  br i1 %32, label %33, label %36

33:                                               ; preds = %1
  %34 = load i32, ptr %3, align 4, !tbaa !85
  %35 = add i32 %34, 1
  store i32 %35, ptr %3, align 4, !tbaa !85
  br label %36

36:                                               ; preds = %33, %1
  %37 = load i32, ptr %3, align 4, !tbaa !85
  %38 = load ptr, ptr %2, align 8, !tbaa !11
  %39 = getelementptr inbounds nuw %struct.GetBitContext, ptr %38, i32 0, i32 2
  store i32 %37, ptr %39, align 8, !tbaa !89
  %40 = load i8, ptr %4, align 1, !tbaa !92
  %41 = zext i8 %40 to i32
  call void @llvm.lifetime.end.p0(i64 1, ptr %4) #9
  call void @llvm.lifetime.end.p0(i64 4, ptr %3) #9
  ret i32 %41
}

; Function Attrs: nounwind uwtable
define internal void @decode_rowskip(ptr noundef %0, i32 noundef %1, i32 noundef %2, i32 noundef %3, ptr noundef %4) #0 {
  %6 = alloca ptr, align 8
  %7 = alloca i32, align 4
  %8 = alloca i32, align 4
  %9 = alloca i32, align 4
  %10 = alloca ptr, align 8
  %11 = alloca i32, align 4
  %12 = alloca i32, align 4
  store ptr %0, ptr %6, align 8, !tbaa !88
  store i32 %1, ptr %7, align 4, !tbaa !85
  store i32 %2, ptr %8, align 4, !tbaa !85
  store i32 %3, ptr %9, align 4, !tbaa !85
  store ptr %4, ptr %10, align 8, !tbaa !11
  call void @llvm.lifetime.start.p0(i64 4, ptr %11) #9
  call void @llvm.lifetime.start.p0(i64 4, ptr %12) #9
  store i32 0, ptr %12, align 4, !tbaa !85
  br label %13

13:                                               ; preds = %47, %5
  %14 = load i32, ptr %12, align 4, !tbaa !85
  %15 = load i32, ptr %8, align 4, !tbaa !85
  %16 = icmp slt i32 %14, %15
  br i1 %16, label %17, label %50

17:                                               ; preds = %13
  %18 = load ptr, ptr %10, align 8, !tbaa !11
  %19 = call i32 @get_bits1(ptr noundef %18)
  %20 = icmp ne i32 %19, 0
  br i1 %20, label %25, label %21

21:                                               ; preds = %17
  %22 = load ptr, ptr %6, align 8, !tbaa !88
  %23 = load i32, ptr %7, align 4, !tbaa !85
  %24 = sext i32 %23 to i64
  call void @llvm.memset.p0.i64(ptr align 1 %22, i8 0, i64 %24, i1 false)
  br label %42

25:                                               ; preds = %17
  store i32 0, ptr %11, align 4, !tbaa !85
  br label %26

26:                                               ; preds = %38, %25
  %27 = load i32, ptr %11, align 4, !tbaa !85
  %28 = load i32, ptr %7, align 4, !tbaa !85
  %29 = icmp slt i32 %27, %28
  br i1 %29, label %30, label %41

30:                                               ; preds = %26
  %31 = load ptr, ptr %10, align 8, !tbaa !11
  %32 = call i32 @get_bits1(ptr noundef %31)
  %33 = trunc i32 %32 to i8
  %34 = load ptr, ptr %6, align 8, !tbaa !88
  %35 = load i32, ptr %11, align 4, !tbaa !85
  %36 = sext i32 %35 to i64
  %37 = getelementptr inbounds i8, ptr %34, i64 %36
  store i8 %33, ptr %37, align 1, !tbaa !92
  br label %38

38:                                               ; preds = %30
  %39 = load i32, ptr %11, align 4, !tbaa !85
  %40 = add nsw i32 %39, 1
  store i32 %40, ptr %11, align 4, !tbaa !85
  br label %26, !llvm.loop !257

41:                                               ; preds = %26
  br label %42

42:                                               ; preds = %41, %21
  %43 = load i32, ptr %9, align 4, !tbaa !85
  %44 = load ptr, ptr %6, align 8, !tbaa !88
  %45 = sext i32 %43 to i64
  %46 = getelementptr inbounds i8, ptr %44, i64 %45
  store ptr %46, ptr %6, align 8, !tbaa !88
  br label %47

47:                                               ; preds = %42
  %48 = load i32, ptr %12, align 4, !tbaa !85
  %49 = add nsw i32 %48, 1
  store i32 %49, ptr %12, align 4, !tbaa !85
  br label %13, !llvm.loop !258

50:                                               ; preds = %13
  call void @llvm.lifetime.end.p0(i64 4, ptr %12) #9
  call void @llvm.lifetime.end.p0(i64 4, ptr %11) #9
  ret void
}