; Function Attrs: nofree norecurse nosync nounwind memory(read, argmem: readwrite, inaccessiblemem: none) uwtable
define internal fastcc void @decode_rowskip(ptr noundef writeonly captures(none) %0, i32 noundef %1, i32 noundef %2, i32 noundef %3, ptr noundef captures(none) %4) unnamed_addr #9 {
  %6 = icmp sgt i32 %2, 0
  br i1 %6, label %.lr.ph19, label %._crit_edge

.lr.ph19:                                         ; preds = %5
  %7 = getelementptr inbounds nuw i8, ptr %4, i64 16
  %8 = getelementptr inbounds nuw i8, ptr %4, i64 24
  %9 = icmp sgt i32 %1, 0
  %10 = sext i32 %1 to i64
  %11 = sext i32 %3 to i64
  br i1 %9, label %.lr.ph19.split.us.preheader, label %.lr.ph19.split

.lr.ph19.split.us.preheader:                      ; preds = %.lr.ph19
  %wide.trip.count = zext nneg i32 %1 to i64
  br label %.lr.ph19.split.us

.lr.ph19.split.us:                                ; preds = %.lr.ph19.split.us.preheader, %..loopexit_crit_edge.us
  %.018.us = phi i32 [ %42, %..loopexit_crit_edge.us ], [ 0, %.lr.ph19.split.us.preheader ]
  %.01417.us = phi ptr [ %41, %..loopexit_crit_edge.us ], [ %0, %.lr.ph19.split.us.preheader ]
  %12 = load i32, ptr %7, align 8, !tbaa !12
  %13 = load ptr, ptr %4, align 8, !tbaa !15
  %14 = lshr i32 %12, 3
  %15 = zext nneg i32 %14 to i64
  %16 = getelementptr inbounds nuw i8, ptr %13, i64 %15
  %17 = load i8, ptr %16, align 1, !tbaa !11
  %18 = load i32, ptr %8, align 8, !tbaa !14
  %19 = icmp slt i32 %12, %18
  %20 = zext i1 %19 to i32
  %spec.select.i.us = add i32 %12, %20
  %21 = zext i8 %17 to i32
  %22 = and i32 %12, 7
  store i32 %spec.select.i.us, ptr %7, align 8, !tbaa !12
  %23 = lshr exact i32 128, %22
  %24 = and i32 %23, %21
  %.not.us = icmp eq i32 %24, 0
  br i1 %.not.us, label %40, label %.preheader.us

.preheader.us:                                    ; preds = %.lr.ph19.split.us, %.preheader.us
  %indvars.iv = phi i64 [ %indvars.iv.next, %.preheader.us ], [ 0, %.lr.ph19.split.us ]
  %25 = load i32, ptr %7, align 8, !tbaa !12
  %26 = load ptr, ptr %4, align 8, !tbaa !15
  %27 = lshr i32 %25, 3
  %28 = zext nneg i32 %27 to i64
  %29 = getelementptr inbounds nuw i8, ptr %26, i64 %28
  %30 = load i8, ptr %29, align 1, !tbaa !11
  %31 = load i32, ptr %8, align 8, !tbaa !14
  %32 = icmp slt i32 %25, %31
  %33 = zext i1 %32 to i32
  %spec.select.i15.us = add i32 %25, %33
  %34 = zext i8 %30 to i32
  %35 = and i32 %25, 7
  %36 = shl nuw nsw i32 %34, %35
  store i32 %spec.select.i15.us, ptr %7, align 8, !tbaa !12
  %37 = trunc i32 %36 to i8
  %38 = lshr i8 %37, 7
  %39 = getelementptr inbounds nuw i8, ptr %.01417.us, i64 %indvars.iv
  store i8 %38, ptr %39, align 1, !tbaa !11
  %indvars.iv.next = add nuw nsw i64 %indvars.iv, 1
  %exitcond22.not = icmp eq i64 %indvars.iv.next, %wide.trip.count
  br i1 %exitcond22.not, label %..loopexit_crit_edge.us, label %.preheader.us, !llvm.loop !182

40:                                               ; preds = %.lr.ph19.split.us
  tail call void @llvm.memset.p0.i64(ptr align 1 %.01417.us, i8 0, i64 %10, i1 false)
  br label %..loopexit_crit_edge.us

..loopexit_crit_edge.us:                          ; preds = %.preheader.us, %40
  %41 = getelementptr inbounds i8, ptr %.01417.us, i64 %11
  %42 = add nuw nsw i32 %.018.us, 1
  %exitcond23.not = icmp eq i32 %42, %2
  br i1 %exitcond23.not, label %._crit_edge, label %.lr.ph19.split.us, !llvm.loop !183

.lr.ph19.split:                                   ; preds = %.lr.ph19, %.preheader
  %.018 = phi i32 [ %58, %.preheader ], [ 0, %.lr.ph19 ]
  %.01417 = phi ptr [ %57, %.preheader ], [ %0, %.lr.ph19 ]
  %43 = load i32, ptr %7, align 8, !tbaa !12
  %44 = load ptr, ptr %4, align 8, !tbaa !15
  %45 = lshr i32 %43, 3
  %46 = zext nneg i32 %45 to i64
  %47 = getelementptr inbounds nuw i8, ptr %44, i64 %46
  %48 = load i8, ptr %47, align 1, !tbaa !11
  %49 = load i32, ptr %8, align 8, !tbaa !14
  %50 = icmp slt i32 %43, %49
  %51 = zext i1 %50 to i32
  %spec.select.i = add i32 %43, %51
  %52 = zext i8 %48 to i32
  %53 = and i32 %43, 7
  store i32 %spec.select.i, ptr %7, align 8, !tbaa !12
  %54 = lshr exact i32 128, %53
  %55 = and i32 %54, %52
  %.not = icmp eq i32 %55, 0
  br i1 %.not, label %56, label %.preheader

56:                                               ; preds = %.lr.ph19.split
  tail call void @llvm.memset.p0.i64(ptr align 1 %.01417, i8 0, i64 %10, i1 false)
  br label %.preheader

.preheader:                                       ; preds = %.lr.ph19.split, %56
  %57 = getelementptr inbounds i8, ptr %.01417, i64 %11
  %58 = add nuw nsw i32 %.018, 1
  %exitcond.not = icmp eq i32 %58, %2
  br i1 %exitcond.not, label %._crit_edge, label %.lr.ph19.split, !llvm.loop !183

._crit_edge:                                      ; preds = %.preheader, %..loopexit_crit_edge.us, %5
  ret void
}